target datalayout = "e-m:e-p270:32:32-p271:32:32-p272:64:64-i64:64-i128:128-f80:128-n8:16:32:64-S128"
target triple = "x86_64-pc-linux-gnu"

%struct.expert_field = type { i32, i32 }

@ei_pfcp_ie_data_not_decoded = internal global %struct.expert_field zeroinitializer, align 4
@dissect_pfcp_proxying.pfcp_proxying_flags = internal constant [4 x ptr] [ptr @hf_pfcp_spare_b7_b2, ptr @hf_pfcp_proxying_flags_b1_ins, ptr @hf_pfcp_proxying_flags_b0_arp, ptr null], align 16

; Function Attrs: null_pointer_is_valid sspstrong uwtable
define internal void @dissect_pfcp_proxying(ptr noundef %0, ptr noundef %1, ptr noundef %2, ptr noundef %3, i16 noundef zeroext %4, i8 noundef zeroext %5, ptr noundef %6) #0 {
  %8 = alloca ptr, align 8
  %9 = alloca ptr, align 8
  %10 = alloca ptr, align 8
  %11 = alloca ptr, align 8
  %12 = alloca i16, align 2
  %13 = alloca i8, align 1
  %14 = alloca ptr, align 8
  %15 = alloca i32, align 4
  %16 = alloca i64, align 8
  store ptr %0, ptr %8, align 8
  store ptr %1, ptr %9, align 8
  store ptr %2, ptr %10, align 8
  store ptr %3, ptr %11, align 8
  store i16 %4, ptr %12, align 2
  store i8 %5, ptr %13, align 1
  store ptr %6, ptr %14, align 8
  call void @llvm.lifetime.start.p0(i64 4, ptr %15) #13
  store i32 0, ptr %15, align 4
  call void @llvm.lifetime.start.p0(i64 8, ptr %16) #13
  %17 = load ptr, ptr %10, align 8
  %18 = load ptr, ptr %8, align 8
  %19 = load i32, ptr %15, align 4
  call void @proto_tree_add_bitmask_list_ret_uint64(ptr noundef %17, ptr noundef %18, i32 noundef %19, i32 noundef 1, ptr noundef @dissect_pfcp_proxying.pfcp_proxying_flags, i32 noundef 0, ptr noundef %16)
  %20 = load i32, ptr %15, align 4
  %21 = add i32 %20, 1
  store i32 %21, ptr %15, align 4
  %22 = load i32, ptr %15, align 4
  %23 = load i16, ptr %12, align 2
  %24 = zext i16 %23 to i32
  %25 = icmp slt i32 %22, %24
  br i1 %25, label %26, label %32

26:                                               ; preds = %7
  %27 = load ptr, ptr %10, align 8
  %28 = load ptr, ptr %9, align 8
  %29 = load ptr, ptr %8, align 8
  %30 = load i32, ptr %15, align 4
  %31 = call ptr @proto_tree_add_expert(ptr noundef %27, ptr noundef %28, ptr noundef @ei_pfcp_ie_data_not_decoded, ptr noundef %29, i32 noundef %30, i32 noundef -1)
  br label %32

32:                                               ; preds = %26, %7
  call void @llvm.lifetime.end.p0(i64 8, ptr %16) #13
  call void @llvm.lifetime.end.p0(i64 4, ptr %15) #13
  ret void
}