; Function Attrs: null_pointer_is_valid sspstrong uwtable
define internal void @dissect_pfcp_proxying(ptr noundef %0, ptr noundef %1, ptr noundef %2, ptr readnone captures(none) %3, i16 noundef zeroext %4, i8 zeroext %5, ptr readnone captures(none) %6) #0 {
  %8 = alloca i64, align 8
  call void @llvm.lifetime.start.p0(i64 8, ptr nonnull %8) #15
  call void @proto_tree_add_bitmask_list_ret_uint64(ptr noundef %2, ptr noundef %0, i32 noundef 0, i32 noundef 1, ptr noundef nonnull @dissect_pfcp_proxying.pfcp_proxying_flags, i32 noundef 0, ptr noundef nonnull %8)
  %9 = icmp ugt i16 %4, 1
  br i1 %9, label %10, label %12

10:                                               ; preds = %7
  %11 = call ptr @proto_tree_add_expert(ptr noundef %2, ptr noundef %1, ptr noundef nonnull @ei_pfcp_ie_data_not_decoded, ptr noundef %0, i32 noundef 1, i32 noundef -1)
  br label %12

12:                                               ; preds = %10, %7
  call void @llvm.lifetime.end.p0(i64 8, ptr nonnull %8) #15
  ret void
}